target datalayout = "e-m:e-p270:32:32-p271:32:32-p272:64:64-i64:64-i128:128-f80:128-n8:16:32:64-S128"
target triple = "x86_64-pc-linux-gnu"

%"class.rocksdb::IOTraceWriter" = type { ptr, %"struct.rocksdb::TraceOptions", %"class.std::unique_ptr" }
%"struct.rocksdb::TraceOptions" = type <{ i64, i64, i64, i8, [7 x i8] }>
%"class.std::unique_ptr" = type { %"struct.std::__uniq_ptr_data" }
%"struct.std::__uniq_ptr_data" = type { %"class.std::__uniq_ptr_impl" }
%"class.std::__uniq_ptr_impl" = type { %"class.std::tuple" }
%"class.std::tuple" = type { %"struct.std::_Tuple_impl" }
%"struct.std::_Tuple_impl" = type { %"struct.std::_Head_base.4" }
%"struct.std::_Head_base.4" = type { ptr }
%"class.rocksdb::IOTracer" = type <{ %"struct.rocksdb::TraceOptions", %"class.rocksdb::InstrumentedMutex", %"struct.std::atomic", i8, [7 x i8] }>
%"class.rocksdb::InstrumentedMutex" = type <{ %"class.rocksdb::port::Mutex", ptr, ptr, i32, [4 x i8] }>
%"class.rocksdb::port::Mutex" = type { %union.pthread_mutex_t }
%union.pthread_mutex_t = type { %struct.__pthread_mutex_s }
%struct.__pthread_mutex_s = type { i32, i32, i32, i32, i32, i16, i16, %struct.__pthread_internal_list }
%struct.__pthread_internal_list = type { ptr, ptr }
%"struct.std::atomic" = type { %"struct.std::__atomic_base" }
%"struct.std::__atomic_base" = type { ptr }
%"class.rocksdb::InstrumentedMutexLock" = type { ptr }

; Function Attrs: mustprogress nounwind uwtable
define linkonce_odr noundef nonnull align 1 dereferenceable(1) ptr @_ZNSt10_Head_baseILm1ESt14default_deleteIN7rocksdb11TraceWriterEELb1EE7_M_headERS4_(ptr noundef nonnull align 1 dereferenceable(1) %0) #3 comdat align 2 {
  %2 = alloca ptr, align 8
  store ptr %0, ptr %2, align 8, !tbaa !246
  %3 = load ptr, ptr %2, align 8, !tbaa !246
  ret ptr %3
}

; Function Attrs: mustprogress nounwind uwtable
define linkonce_odr noundef nonnull align 1 dereferenceable(1) ptr @_ZNSt11_Tuple_implILm1EJSt14default_deleteIN7rocksdb11TraceWriterEEEE7_M_headERS4_(ptr noundef nonnull align 1 dereferenceable(1) %0) #3 comdat align 2 {
  %2 = alloca ptr, align 8
  store ptr %0, ptr %2, align 8, !tbaa !195
  %3 = load ptr, ptr %2, align 8, !tbaa !195
  %4 = call noundef nonnull align 1 dereferenceable(1) ptr @_ZNSt10_Head_baseILm1ESt14default_deleteIN7rocksdb11TraceWriterEELb1EE7_M_headERS4_(ptr noundef nonnull align 1 dereferenceable(1) %3) #4
  ret ptr %4
}

; Function Attrs: mustprogress nounwind uwtable
define linkonce_odr noundef nonnull align 8 dereferenceable(8) ptr @_ZNSt10_Head_baseILm0EPN7rocksdb11TraceWriterELb0EE7_M_headERS3_(ptr noundef nonnull align 8 dereferenceable(8) %0) #3 comdat align 2 {
  %2 = alloca ptr, align 8
  store ptr %0, ptr %2, align 8, !tbaa !197
  %3 = load ptr, ptr %2, align 8, !tbaa !197
  %4 = getelementptr inbounds nuw %"struct.std::_Head_base.4", ptr %3, i32 0, i32 0
  ret ptr %4
}

; Function Attrs: mustprogress nounwind uwtable
define linkonce_odr noundef nonnull align 1 dereferenceable(1) ptr @_ZSt12__get_helperILm1ESt14default_deleteIN7rocksdb11TraceWriterEEJEERT0_RSt11_Tuple_implIXT_EJS4_DpT1_EE(ptr noundef nonnull align 1 dereferenceable(1) %0) #3 comdat {
  %2 = alloca ptr, align 8
  store ptr %0, ptr %2, align 8, !tbaa !195
  %3 = load ptr, ptr %2, align 8, !tbaa !195
  %4 = call noundef nonnull align 1 dereferenceable(1) ptr @_ZNSt11_Tuple_implILm1EJSt14default_deleteIN7rocksdb11TraceWriterEEEE7_M_headERS4_(ptr noundef nonnull align 1 dereferenceable(1) %3) #4
  ret ptr %4
}

; Function Attrs: mustprogress nounwind uwtable
define linkonce_odr noundef nonnull align 8 dereferenceable(8) ptr @_ZNSt11_Tuple_implILm0EJPN7rocksdb11TraceWriterESt14default_deleteIS1_EEE7_M_headERS5_(ptr noundef nonnull align 8 dereferenceable(8) %0) #3 comdat align 2 {
  %2 = alloca ptr, align 8
  store ptr %0, ptr %2, align 8, !tbaa !192
  %3 = load ptr, ptr %2, align 8, !tbaa !192
  %4 = call noundef nonnull align 8 dereferenceable(8) ptr @_ZNSt10_Head_baseILm0EPN7rocksdb11TraceWriterELb0EE7_M_headERS3_(ptr noundef nonnull align 8 dereferenceable(8) %3) #4
  ret ptr %4
}

; Function Attrs: mustprogress nounwind uwtable
define linkonce_odr noundef nonnull align 1 dereferenceable(1) ptr @_ZSt3getILm1EJPN7rocksdb11TraceWriterESt14default_deleteIS1_EEERNSt13tuple_elementIXT_ESt5tupleIJDpT0_EEE4typeERS9_(ptr noundef nonnull align 8 dereferenceable(8) %0) #3 comdat {
  %2 = alloca ptr, align 8
  store ptr %0, ptr %2, align 8, !tbaa !190
  %3 = load ptr, ptr %2, align 8, !tbaa !190
  %4 = call noundef nonnull align 1 dereferenceable(1) ptr @_ZSt12__get_helperILm1ESt14default_deleteIN7rocksdb11TraceWriterEEJEERT0_RSt11_Tuple_implIXT_EJS4_DpT1_EE(ptr noundef nonnull align 1 dereferenceable(1) %3) #4
  ret ptr %4
}

; Function Attrs: mustprogress nounwind uwtable
define linkonce_odr noundef nonnull align 8 dereferenceable(8) ptr @_ZSt12__get_helperILm0EPN7rocksdb11TraceWriterEJSt14default_deleteIS1_EEERT0_RSt11_Tuple_implIXT_EJS5_DpT1_EE(ptr noundef nonnull align 8 dereferenceable(8) %0) #3 comdat {
  %2 = alloca ptr, align 8
  store ptr %0, ptr %2, align 8, !tbaa !192
  %3 = load ptr, ptr %2, align 8, !tbaa !192
  %4 = call noundef nonnull align 8 dereferenceable(8) ptr @_ZNSt11_Tuple_implILm0EJPN7rocksdb11TraceWriterESt14default_deleteIS1_EEE7_M_headERS5_(ptr noundef nonnull align 8 dereferenceable(8) %3) #4
  ret ptr %4
}

; Function Attrs: mustprogress nounwind uwtable
define linkonce_odr noundef nonnull align 1 dereferenceable(1) ptr @_ZNSt15__uniq_ptr_implIN7rocksdb11TraceWriterESt14default_deleteIS1_EE10_M_deleterEv(ptr noundef nonnull align 8 dereferenceable(8) %0) #3 comdat align 2 {
  %2 = alloca ptr, align 8
  store ptr %0, ptr %2, align 8, !tbaa !187
  %3 = load ptr, ptr %2, align 8
  %4 = getelementptr inbounds nuw %"class.std::__uniq_ptr_impl", ptr %3, i32 0, i32 0
  %5 = call noundef nonnull align 1 dereferenceable(1) ptr @_ZSt3getILm1EJPN7rocksdb11TraceWriterESt14default_deleteIS1_EEERNSt13tuple_elementIXT_ESt5tupleIJDpT0_EEE4typeERS9_(ptr noundef nonnull align 8 dereferenceable(8) %4) #4
  ret ptr %5
}

; Function Attrs: mustprogress nounwind uwtable
define linkonce_odr noundef nonnull align 8 dereferenceable(8) ptr @_ZSt3getILm0EJPN7rocksdb11TraceWriterESt14default_deleteIS1_EEERNSt13tuple_elementIXT_ESt5tupleIJDpT0_EEE4typeERS9_(ptr noundef nonnull align 8 dereferenceable(8) %0) #3 comdat {
  %2 = alloca ptr, align 8
  store ptr %0, ptr %2, align 8, !tbaa !190
  %3 = load ptr, ptr %2, align 8, !tbaa !190
  %4 = call noundef nonnull align 8 dereferenceable(8) ptr @_ZSt12__get_helperILm0EPN7rocksdb11TraceWriterEJSt14default_deleteIS1_EEERT0_RSt11_Tuple_implIXT_EJS5_DpT1_EE(ptr noundef nonnull align 8 dereferenceable(8) %3) #4
  ret ptr %4
}

; Function Attrs: mustprogress nounwind uwtable
define linkonce_odr void @_ZNKSt14default_deleteIN7rocksdb11TraceWriterEEclEPS1_(ptr noundef nonnull align 1 dereferenceable(1) %0, ptr noundef %1) #3 comdat align 2 {
  %3 = alloca ptr, align 8
  %4 = alloca ptr, align 8
  store ptr %0, ptr %3, align 8, !tbaa !244
  store ptr %1, ptr %4, align 8, !tbaa !189
  %5 = load ptr, ptr %4, align 8, !tbaa !189
  %6 = icmp eq ptr %5, null
  br i1 %6, label %11, label %7

7:                                                ; preds = %2
  %8 = load ptr, ptr %5, align 8, !tbaa !75
  %9 = getelementptr inbounds ptr, ptr %8, i64 1
  %10 = load ptr, ptr %9, align 8
  call void %10(ptr noundef nonnull align 8 dereferenceable(8) %5) #4
  br label %11

11:                                               ; preds = %7, %2
  ret void
}

; Function Attrs: mustprogress nounwind uwtable
define linkonce_odr noundef nonnull align 1 dereferenceable(1) ptr @_ZNSt10unique_ptrIN7rocksdb11TraceWriterESt14default_deleteIS1_EE11get_deleterEv(ptr noundef nonnull align 8 dereferenceable(8) %0) #3 comdat align 2 {
  %2 = alloca ptr, align 8
  store ptr %0, ptr %2, align 8, !tbaa !56
  %3 = load ptr, ptr %2, align 8
  %4 = getelementptr inbounds nuw %"class.std::unique_ptr", ptr %3, i32 0, i32 0
  %5 = call noundef nonnull align 1 dereferenceable(1) ptr @_ZNSt15__uniq_ptr_implIN7rocksdb11TraceWriterESt14default_deleteIS1_EE10_M_deleterEv(ptr noundef nonnull align 8 dereferenceable(8) %4) #4
  ret ptr %5
}

; Function Attrs: mustprogress nounwind uwtable
define linkonce_odr noundef nonnull align 8 dereferenceable(8) ptr @_ZNSt15__uniq_ptr_implIN7rocksdb11TraceWriterESt14default_deleteIS1_EE6_M_ptrEv(ptr noundef nonnull align 8 dereferenceable(8) %0) #3 comdat align 2 {
  %2 = alloca ptr, align 8
  store ptr %0, ptr %2, align 8, !tbaa !187
  %3 = load ptr, ptr %2, align 8
  %4 = getelementptr inbounds nuw %"class.std::__uniq_ptr_impl", ptr %3, i32 0, i32 0
  %5 = call noundef nonnull align 8 dereferenceable(8) ptr @_ZSt3getILm0EJPN7rocksdb11TraceWriterESt14default_deleteIS1_EEERNSt13tuple_elementIXT_ESt5tupleIJDpT0_EEE4typeERS9_(ptr noundef nonnull align 8 dereferenceable(8) %4) #4
  ret ptr %5
}

; Function Attrs: mustprogress nounwind uwtable
define linkonce_odr noundef i32 @_ZStanSt12memory_orderSt23__memory_order_modifier(i32 noundef %0, i32 noundef %1) #3 comdat {
  %3 = alloca i32, align 4
  %4 = alloca i32, align 4
  store i32 %0, ptr %3, align 4, !tbaa !168
  store i32 %1, ptr %4, align 4, !tbaa !257
  %5 = load i32, ptr %3, align 4, !tbaa !168
  %6 = load i32, ptr %4, align 4, !tbaa !257
  %7 = and i32 %5, %6
  ret i32 %7
}

; Function Attrs: mustprogress uwtable
define linkonce_odr void @_ZN7rocksdb17InstrumentedMutex6UnlockEv(ptr noundef nonnull align 8 dereferenceable(60) %0) #5 comdat align 2 {
  %2 = alloca ptr, align 8
  store ptr %0, ptr %2, align 8, !tbaa !161
  %3 = load ptr, ptr %2, align 8
  %4 = getelementptr inbounds nuw %"class.rocksdb::InstrumentedMutex", ptr %3, i32 0, i32 0
  call void @_ZN7rocksdb4port5Mutex6UnlockEv(ptr noundef nonnull align 8 dereferenceable(40) %4)
  ret void
}

; Function Attrs: alwaysinline mustprogress nounwind uwtable
define linkonce_odr void @_ZNSt13__atomic_baseIPN7rocksdb13IOTraceWriterEE5storeES2_St12memory_order(ptr noundef nonnull align 8 dereferenceable(8) %0, ptr noundef %1, i32 noundef %2) #16 comdat align 2 personality ptr @__gxx_personality_v0 {
  %4 = alloca ptr, align 8
  %5 = alloca ptr, align 8
  %6 = alloca i32, align 4
  %7 = alloca i32, align 4
  %8 = alloca ptr, align 8
  store ptr %0, ptr %4, align 8, !tbaa !255
  store ptr %1, ptr %5, align 8, !tbaa !50
  store i32 %2, ptr %6, align 4, !tbaa !168
  %9 = load ptr, ptr %4, align 8
  call void @llvm.lifetime.start.p0(i64 4, ptr %7) #4
  %10 = load i32, ptr %6, align 4, !tbaa !168
  %11 = invoke noundef i32 @_ZStanSt12memory_orderSt23__memory_order_modifier(i32 noundef %10, i32 noundef 65535)
          to label %12 unwind label %32

12:                                               ; preds = %3
  store i32 %11, ptr %7, align 4, !tbaa !168
  br label %13

13:                                               ; preds = %12
  br label %14

14:                                               ; preds = %13
  br label %15

15:                                               ; preds = %14
  br label %16

16:                                               ; preds = %15
  br label %17

17:                                               ; preds = %16
  br label %18

18:                                               ; preds = %17
  br label %19

19:                                               ; preds = %18
  br label %20

20:                                               ; preds = %19
  br label %21

21:                                               ; preds = %20
  %22 = getelementptr inbounds nuw %"struct.std::__atomic_base", ptr %9, i32 0, i32 0
  %23 = load i32, ptr %6, align 4, !tbaa !168
  %24 = load ptr, ptr %5, align 8, !tbaa !50
  store ptr %24, ptr %8, align 8, !tbaa !50
  switch i32 %23, label %25 [
    i32 3, label %27
    i32 5, label %29
  ]

25:                                               ; preds = %21
  %26 = load i64, ptr %8, align 8
  store atomic i64 %26, ptr %22 monotonic, align 8
  br label %31

27:                                               ; preds = %21
  %28 = load i64, ptr %8, align 8
  store atomic i64 %28, ptr %22 release, align 8
  br label %31

29:                                               ; preds = %21
  %30 = load i64, ptr %8, align 8
  store atomic i64 %30, ptr %22 seq_cst, align 8
  br label %31

31:                                               ; preds = %29, %27, %25
  call void @llvm.lifetime.end.p0(i64 4, ptr %7) #4
  ret void

32:                                               ; preds = %3
  %33 = landingpad { ptr, i32 }
          catch ptr null
  %34 = extractvalue { ptr, i32 } %33, 0
  call void @__clang_call_terminate(ptr %34) #18
  unreachable
}

; Function Attrs: mustprogress nounwind uwtable
define linkonce_odr void @_ZNSt10unique_ptrIN7rocksdb11TraceWriterESt14default_deleteIS1_EED2Ev(ptr noundef nonnull align 8 dereferenceable(8) %0) unnamed_addr #3 comdat align 2 personality ptr @__gxx_personality_v0 {
  %2 = alloca ptr, align 8
  %3 = alloca ptr, align 8
  store ptr %0, ptr %2, align 8, !tbaa !56
  %4 = load ptr, ptr %2, align 8
  call void @llvm.lifetime.start.p0(i64 8, ptr %3) #4
  %5 = getelementptr inbounds nuw %"class.std::unique_ptr", ptr %4, i32 0, i32 0
  %6 = call noundef nonnull align 8 dereferenceable(8) ptr @_ZNSt15__uniq_ptr_implIN7rocksdb11TraceWriterESt14default_deleteIS1_EE6_M_ptrEv(ptr noundef nonnull align 8 dereferenceable(8) %5) #4
  store ptr %6, ptr %3, align 8, !tbaa !242
  %7 = load ptr, ptr %3, align 8, !tbaa !242
  %8 = load ptr, ptr %7, align 8, !tbaa !189
  %9 = icmp ne ptr %8, null
  br i1 %9, label %10, label %15

10:                                               ; preds = %1
  %11 = call noundef nonnull align 1 dereferenceable(1) ptr @_ZNSt10unique_ptrIN7rocksdb11TraceWriterESt14default_deleteIS1_EE11get_deleterEv(ptr noundef nonnull align 8 dereferenceable(8) %4) #4
  %12 = load ptr, ptr %3, align 8, !tbaa !242
  %13 = load ptr, ptr %12, align 8, !tbaa !189
  invoke void @_ZNKSt14default_deleteIN7rocksdb11TraceWriterEEclEPS1_(ptr noundef nonnull align 1 dereferenceable(1) %11, ptr noundef %13)
          to label %14 unwind label %17

14:                                               ; preds = %10
  br label %15

15:                                               ; preds = %14, %1
  %16 = load ptr, ptr %3, align 8, !tbaa !242
  store ptr null, ptr %16, align 8, !tbaa !189
  call void @llvm.lifetime.end.p0(i64 8, ptr %3) #4
  ret void

17:                                               ; preds = %10
  %18 = landingpad { ptr, i32 }
          catch ptr null
  %19 = extractvalue { ptr, i32 } %18, 0
  call void @__clang_call_terminate(ptr %19) #18
  unreachable
}

; Function Attrs: alwaysinline mustprogress nounwind uwtable
define linkonce_odr noundef ptr @_ZNKSt13__atomic_baseIPN7rocksdb13IOTraceWriterEE4loadESt12memory_order(ptr noundef nonnull align 8 dereferenceable(8) %0, i32 noundef %1) #16 comdat align 2 {
  %3 = alloca ptr, align 8
  %4 = alloca i32, align 4
  %5 = alloca i32, align 4
  %6 = alloca ptr, align 8
  store ptr %0, ptr %3, align 8, !tbaa !255
  store i32 %1, ptr %4, align 4, !tbaa !168
  %7 = load ptr, ptr %3, align 8
  call void @llvm.lifetime.start.p0(i64 4, ptr %5) #4
  %8 = load i32, ptr %4, align 4, !tbaa !168
  %9 = call noundef i32 @_ZStanSt12memory_orderSt23__memory_order_modifier(i32 noundef %8, i32 noundef 65535)
  store i32 %9, ptr %5, align 4, !tbaa !168
  br label %10

10:                                               ; preds = %2
  br label %11

11:                                               ; preds = %10
  br label %12

12:                                               ; preds = %11
  br label %13

13:                                               ; preds = %12
  br label %14

14:                                               ; preds = %13
  br label %15

15:                                               ; preds = %14
  %16 = getelementptr inbounds nuw %"struct.std::__atomic_base", ptr %7, i32 0, i32 0
  %17 = load i32, ptr %4, align 4, !tbaa !168
  switch i32 %17, label %18 [
    i32 1, label %20
    i32 2, label %20
    i32 5, label %22
  ]

18:                                               ; preds = %15
  %19 = load atomic i64, ptr %16 monotonic, align 8
  store i64 %19, ptr %6, align 8
  br label %24

20:                                               ; preds = %15, %15
  %21 = load atomic i64, ptr %16 acquire, align 8
  store i64 %21, ptr %6, align 8
  br label %24

22:                                               ; preds = %15
  %23 = load atomic i64, ptr %16 seq_cst, align 8
  store i64 %23, ptr %6, align 8
  br label %24

24:                                               ; preds = %22, %20, %18
  %25 = load ptr, ptr %6, align 8, !tbaa !50
  call void @llvm.lifetime.end.p0(i64 4, ptr %5) #4
  ret ptr %25
}

; Function Attrs: mustprogress nounwind uwtable
define linkonce_odr void @_ZN7rocksdb21InstrumentedMutexLockD2Ev(ptr noundef nonnull align 8 dereferenceable(8) %0) unnamed_addr #3 comdat align 2 personality ptr @__gxx_personality_v0 {
  %2 = alloca ptr, align 8
  store ptr %0, ptr %2, align 8, !tbaa !170
  %3 = load ptr, ptr %2, align 8
  %4 = getelementptr inbounds nuw %"class.rocksdb::InstrumentedMutexLock", ptr %3, i32 0, i32 0
  %5 = load ptr, ptr %4, align 8, !tbaa !172
  invoke void @_ZN7rocksdb17InstrumentedMutex6UnlockEv(ptr noundef nonnull align 8 dereferenceable(60) %5)
          to label %6 unwind label %7

6:                                                ; preds = %1
  ret void

7:                                                ; preds = %1
  %8 = landingpad { ptr, i32 }
          catch ptr null
  %9 = extractvalue { ptr, i32 } %8, 0
  call void @__clang_call_terminate(ptr %9) #18
  unreachable
}

; Function Attrs: mustprogress nounwind uwtable
define linkonce_odr void @_ZNSt6atomicIPN7rocksdb13IOTraceWriterEE5storeES2_St12memory_order(ptr noundef nonnull align 8 dereferenceable(8) %0, ptr noundef %1, i32 noundef %2) #3 comdat align 2 {
  %4 = alloca ptr, align 8
  %5 = alloca ptr, align 8
  %6 = alloca i32, align 4
  store ptr %0, ptr %4, align 8, !tbaa !166
  store ptr %1, ptr %5, align 8, !tbaa !50
  store i32 %2, ptr %6, align 4, !tbaa !168
  %7 = load ptr, ptr %4, align 8
  %8 = getelementptr inbounds nuw %"struct.std::atomic", ptr %7, i32 0, i32 0
  %9 = load ptr, ptr %5, align 8, !tbaa !50
  %10 = load i32, ptr %6, align 4, !tbaa !168
  call void @_ZNSt13__atomic_baseIPN7rocksdb13IOTraceWriterEE5storeES2_St12memory_order(ptr noundef nonnull align 8 dereferenceable(8) %8, ptr noundef %9, i32 noundef %10) #4
  ret void
}

; Function Attrs: mustprogress nounwind uwtable
define linkonce_odr void @_ZN7rocksdb13IOTraceWriterD2Ev(ptr noundef nonnull align 8 dereferenceable(48) %0) unnamed_addr #3 comdat align 2 {
  %2 = alloca ptr, align 8
  store ptr %0, ptr %2, align 8, !tbaa !50
  %3 = load ptr, ptr %2, align 8
  %4 = getelementptr inbounds nuw %"class.rocksdb::IOTraceWriter", ptr %3, i32 0, i32 2
  call void @_ZNSt10unique_ptrIN7rocksdb11TraceWriterESt14default_deleteIS1_EED2Ev(ptr noundef nonnull align 8 dereferenceable(8) %4) #4
  ret void
}

; Function Attrs: mustprogress nounwind uwtable
define linkonce_odr noundef ptr @_ZNKSt6atomicIPN7rocksdb13IOTraceWriterEE4loadESt12memory_order(ptr noundef nonnull align 8 dereferenceable(8) %0, i32 noundef %1) #3 comdat align 2 {
  %3 = alloca ptr, align 8
  %4 = alloca i32, align 4
  store ptr %0, ptr %3, align 8, !tbaa !166
  store i32 %1, ptr %4, align 4, !tbaa !168
  %5 = load ptr, ptr %3, align 8
  %6 = getelementptr inbounds nuw %"struct.std::atomic", ptr %5, i32 0, i32 0
  %7 = load i32, ptr %4, align 4, !tbaa !168
  %8 = call noundef ptr @_ZNKSt13__atomic_baseIPN7rocksdb13IOTraceWriterEE4loadESt12memory_order(ptr noundef nonnull align 8 dereferenceable(8) %6, i32 noundef %7) #4
  ret ptr %8
}

; Function Attrs: mustprogress uwtable
define linkonce_odr void @_ZN7rocksdb21InstrumentedMutexLockC2EPNS_17InstrumentedMutexE(ptr noundef nonnull align 8 dereferenceable(8) %0, ptr noundef %1) unnamed_addr #5 comdat align 2 {
  %3 = alloca ptr, align 8
  %4 = alloca ptr, align 8
  store ptr %0, ptr %3, align 8, !tbaa !170
  store ptr %1, ptr %4, align 8, !tbaa !161
  %5 = load ptr, ptr %3, align 8
  %6 = getelementptr inbounds nuw %"class.rocksdb::InstrumentedMutexLock", ptr %5, i32 0, i32 0
  %7 = load ptr, ptr %4, align 8, !tbaa !161
  store ptr %7, ptr %6, align 8, !tbaa !172
  %8 = getelementptr inbounds nuw %"class.rocksdb::InstrumentedMutexLock", ptr %5, i32 0, i32 0
  %9 = load ptr, ptr %8, align 8, !tbaa !172
  call void @_ZN7rocksdb17InstrumentedMutex4LockEv(ptr noundef nonnull align 8 dereferenceable(60) %9)
  ret void
}

; Function Attrs: mustprogress uwtable
define void @_ZN7rocksdb8IOTracer10EndIOTraceEv(ptr noundef nonnull align 8 dereferenceable(105) %0) #5 align 2 {
  %2 = alloca ptr, align 8
  %3 = alloca %"class.rocksdb::InstrumentedMutexLock", align 8
  %4 = alloca i32, align 4
  store ptr %0, ptr %2, align 8, !tbaa !148
  %5 = load ptr, ptr %2, align 8
  call void @llvm.lifetime.start.p0(i64 8, ptr %3) #4
  %6 = getelementptr inbounds nuw %"class.rocksdb::IOTracer", ptr %5, i32 0, i32 1
  call void @_ZN7rocksdb21InstrumentedMutexLockC2EPNS_17InstrumentedMutexE(ptr noundef nonnull align 8 dereferenceable(8) %3, ptr noundef %6)
  %7 = getelementptr inbounds nuw %"class.rocksdb::IOTracer", ptr %5, i32 0, i32 2
  %8 = call noundef ptr @_ZNKSt6atomicIPN7rocksdb13IOTraceWriterEE4loadESt12memory_order(ptr noundef nonnull align 8 dereferenceable(8) %7, i32 noundef 5) #4
  %9 = icmp ne ptr %8, null
  br i1 %9, label %11, label %10

10:                                               ; preds = %1
  store i32 1, ptr %4, align 4
  br label %19

11:                                               ; preds = %1
  %12 = getelementptr inbounds nuw %"class.rocksdb::IOTracer", ptr %5, i32 0, i32 2
  %13 = call noundef ptr @_ZNKSt6atomicIPN7rocksdb13IOTraceWriterEE4loadESt12memory_order(ptr noundef nonnull align 8 dereferenceable(8) %12, i32 noundef 5) #4
  %14 = icmp eq ptr %13, null
  br i1 %14, label %16, label %15

15:                                               ; preds = %11
  call void @_ZN7rocksdb13IOTraceWriterD2Ev(ptr noundef nonnull align 8 dereferenceable(48) %13) #4
  call void @_ZdlPvm(ptr noundef %13, i64 noundef 48) #21
  br label %16

16:                                               ; preds = %15, %11
  %17 = getelementptr inbounds nuw %"class.rocksdb::IOTracer", ptr %5, i32 0, i32 2
  call void @_ZNSt6atomicIPN7rocksdb13IOTraceWriterEE5storeES2_St12memory_order(ptr noundef nonnull align 8 dereferenceable(8) %17, ptr noundef null, i32 noundef 5) #4
  %18 = getelementptr inbounds nuw %"class.rocksdb::IOTracer", ptr %5, i32 0, i32 3
  store i8 0, ptr %18, align 8, !tbaa !150
  store i32 0, ptr %4, align 4
  br label %19

19:                                               ; preds = %16, %10
  call void @_ZN7rocksdb21InstrumentedMutexLockD2Ev(ptr noundef nonnull align 8 dereferenceable(8) %3) #4
  call void @llvm.lifetime.end.p0(i64 8, ptr %3) #4
  %20 = load i32, ptr %4, align 4
  switch i32 %20, label %22 [
    i32 0, label %21
    i32 1, label %21
  ]

21:                                               ; preds = %19, %19
  ret void

22:                                               ; preds = %19
  unreachable
}